target datalayout = "e-m:e-p270:32:32-p271:32:32-p272:64:64-i64:64-i128:128-f80:128-n8:16:32:64-S128"
target triple = "x86_64-pc-linux-gnu"

@.str.4 = private unnamed_addr constant [13 x i8] c"colorfilters\00", align 1
@.str.5 = private unnamed_addr constant [2 x i8] c"r\00", align 1
@.str.6 = private unnamed_addr constant [44 x i8] c"Could not open global filter file\0A\22%s\22: %s.\00", align 1
@.str.7 = private unnamed_addr constant [43 x i8] c"Error reading global filter file\0A\22%s\22: %s.\00", align 1

; Function Attrs: null_pointer_is_valid sspstrong uwtable
define zeroext i1 @color_filters_read_globals(ptr noundef %0, ptr noundef %1, ptr noundef %2) #0 {
  %4 = alloca i1, align 1
  %5 = alloca ptr, align 8
  %6 = alloca ptr, align 8
  %7 = alloca ptr, align 8
  %8 = alloca ptr, align 8
  %9 = alloca ptr, align 8
  %10 = alloca i32, align 4
  %11 = alloca i32, align 4
  store ptr %0, ptr %5, align 8
  store ptr %1, ptr %6, align 8
  store ptr %2, ptr %7, align 8
  call void @llvm.lifetime.start.p0(i64 8, ptr %8) #13
  call void @llvm.lifetime.start.p0(i64 8, ptr %9) #13
  call void @llvm.lifetime.start.p0(i64 4, ptr %10) #13
  %12 = call ptr @get_datafile_path(ptr noundef @.str.4)
  store ptr %12, ptr %8, align 8
  %13 = load ptr, ptr %8, align 8
  %14 = call noalias ptr @fopen(ptr noundef %13, ptr noundef @.str.5)
  store ptr %14, ptr %9, align 8
  %15 = icmp eq ptr %14, null
  br i1 %15, label %16, label %30

16:                                               ; preds = %3
  %17 = call ptr @__errno_location() #17
  %18 = load i32, ptr %17, align 4
  %19 = icmp ne i32 %18, 2
  br i1 %19, label %20, label %28

20:                                               ; preds = %16
  %21 = load ptr, ptr %8, align 8
  %22 = call ptr @__errno_location() #17
  %23 = load i32, ptr %22, align 4
  %24 = call ptr @g_strerror(i32 noundef %23) #17
  %25 = call noalias ptr (ptr, ptr, ...) @wmem_strdup_printf(ptr noundef null, ptr noundef @.str.6, ptr noundef %21, ptr noundef %24)
  %26 = load ptr, ptr %6, align 8
  store ptr %25, ptr %26, align 8
  %27 = load ptr, ptr %8, align 8
  call void @g_free(ptr noundef %27)
  store i1 false, ptr %4, align 1
  store i32 1, ptr %11, align 4
  br label %52

28:                                               ; preds = %16
  %29 = load ptr, ptr %8, align 8
  call void @g_free(ptr noundef %29)
  store i1 true, ptr %4, align 1
  store i32 1, ptr %11, align 4
  br label %52

30:                                               ; preds = %3
  %31 = load ptr, ptr %8, align 8
  %32 = load ptr, ptr %9, align 8
  %33 = load ptr, ptr %5, align 8
  %34 = load ptr, ptr %7, align 8
  %35 = call i32 @read_filters_file(ptr noundef %31, ptr noundef %32, ptr noundef %33, ptr noundef %34)
  store i32 %35, ptr %10, align 4
  %36 = load i32, ptr %10, align 4
  %37 = icmp ne i32 %36, 0
  br i1 %37, label %38, label %48

38:                                               ; preds = %30
  %39 = load ptr, ptr %8, align 8
  %40 = call ptr @__errno_location() #17
  %41 = load i32, ptr %40, align 4
  %42 = call ptr @g_strerror(i32 noundef %41) #17
  %43 = call noalias ptr (ptr, ptr, ...) @wmem_strdup_printf(ptr noundef null, ptr noundef @.str.7, ptr noundef %39, ptr noundef %42)
  %44 = load ptr, ptr %6, align 8
  store ptr %43, ptr %44, align 8
  %45 = load ptr, ptr %9, align 8
  %46 = call i32 @fclose(ptr noundef %45)
  %47 = load ptr, ptr %8, align 8
  call void @g_free(ptr noundef %47)
  store i1 false, ptr %4, align 1
  store i32 1, ptr %11, align 4
  br label %52

48:                                               ; preds = %30
  %49 = load ptr, ptr %9, align 8
  %50 = call i32 @fclose(ptr noundef %49)
  %51 = load ptr, ptr %8, align 8
  call void @g_free(ptr noundef %51)
  store i1 true, ptr %4, align 1
  store i32 1, ptr %11, align 4
  br label %52

52:                                               ; preds = %48, %38, %28, %20
  call void @llvm.lifetime.end.p0(i64 4, ptr %10) #13
  call void @llvm.lifetime.end.p0(i64 8, ptr %9) #13
  call void @llvm.lifetime.end.p0(i64 8, ptr %8) #13
  %53 = load i1, ptr %4, align 1
  ret i1 %53
}