; Function Attrs: null_pointer_is_valid sspstrong uwtable
define noundef zeroext i1 @color_filters_read_globals(ptr noundef %0, ptr noundef writeonly captures(none) %1, ptr noundef readonly captures(none) %2) local_unnamed_addr #0 {
  %4 = tail call ptr @get_datafile_path(ptr noundef nonnull @.str.4)
  %5 = tail call noalias ptr @fopen(ptr noundef %4, ptr noundef nonnull @.str.5)
  %6 = icmp eq ptr %5, null
  br i1 %6, label %7, label %13

7:                                                ; preds = %3
  %8 = tail call ptr @__errno_location() #15
  %9 = load i32, ptr %8, align 4
  %.not18 = icmp eq i32 %9, 2
  br i1 %.not18, label %23, label %10

10:                                               ; preds = %7
  %11 = tail call ptr @g_strerror(i32 noundef %9) #15
  %12 = tail call noalias ptr (ptr, ptr, ...) @wmem_strdup_printf(ptr noundef null, ptr noundef nonnull @.str.6, ptr noundef %4, ptr noundef %11)
  store ptr %12, ptr %1, align 8
  br label %23

13:                                               ; preds = %3
  %14 = tail call fastcc i32 @read_filters_file(ptr noundef %4, ptr noundef %5, ptr noundef %0, ptr noundef %2)
  %.not = icmp eq i32 %14, 0
  br i1 %.not, label %21, label %15

15:                                               ; preds = %13
  %16 = tail call ptr @__errno_location() #15
  %17 = load i32, ptr %16, align 4
  %18 = tail call ptr @g_strerror(i32 noundef %17) #15
  %19 = tail call noalias ptr (ptr, ptr, ...) @wmem_strdup_printf(ptr noundef null, ptr noundef nonnull @.str.7, ptr noundef %4, ptr noundef %18)
  store ptr %19, ptr %1, align 8
  %20 = tail call i32 @fclose(ptr noundef nonnull %5)
  br label %23

21:                                               ; preds = %13
  %22 = tail call i32 @fclose(ptr noundef nonnull %5)
  br label %23

23:                                               ; preds = %7, %21, %15, %10
  %.0 = phi i1 [ false, %10 ], [ false, %15 ], [ true, %21 ], [ true, %7 ]
  tail call void @g_free(ptr noundef %4)
  ret i1 %.0
}